; ModuleID = '60/1807.c'
source_filename = "60/1807.c"
target datalayout = "e-m:e-p270:32:32-p271:32:32-p272:64:64-i64:64-f80:128-n8:16:32:64-S128"
target triple = "x86_64-pc-linux-gnu"

@.str = private unnamed_addr constant [3 x i8] c"%d\00", align 1
@.str.1 = private unnamed_addr constant [7 x i8] c"%d %d\0A\00", align 1
@.str.2 = private unnamed_addr constant [7 x i8] c"empty\0A\00", align 1

; Function Attrs: noinline nounwind uwtable
define dso_local i32 @main() #0 {
  %1 = alloca i32, align 4
  %2 = alloca i32, align 4
  %3 = alloca i32, align 4
  %4 = alloca i32, align 4
  %5 = alloca i32, align 4
  %6 = alloca i32, align 4
  %7 = alloca i32, align 4
  %8 = alloca i32, align 4
  store i32 0, i32* %1, align 4
  %9 = call i32 (i8*, ...) @__isoc99_scanf(i8* getelementptr inbounds ([3 x i8], [3 x i8]* @.str, i64 0, i64 0), i32* %6)
  store i32 0, i32* %5, align 4
  store i32 2, i32* %2, align 4
  br label %10

10:                                               ; preds = %67, %0
  %11 = load i32, i32* %2, align 4
  %12 = load i32, i32* %6, align 4
  %13 = sub nsw i32 %12, 2
  %14 = icmp sle i32 %11, %13
  br i1 %14, label %15, label %70

15:                                               ; preds = %10
  store i32 0, i32* %7, align 4
  store i32 2, i32* %3, align 4
  br label %16

16:                                               ; preds = %30, %15
  %17 = load i32, i32* %3, align 4
  %18 = load i32, i32* %2, align 4
  %19 = sdiv i32 %18, 2
  %20 = icmp slt i32 %17, %19
  br i1 %20, label %21, label %33

21:                                               ; preds = %16
  %22 = load i32, i32* %2, align 4
  %23 = load i32, i32* %3, align 4
  %24 = srem i32 %22, %23
  %25 = icmp eq i32 %24, 0
  br i1 %25, label %26, label %29

26:                                               ; preds = %21
  %27 = load i32, i32* %7, align 4
  %28 = add nsw i32 %27, 1
  store i32 %28, i32* %7, align 4
  br label %29

29:                                               ; preds = %26, %21
  br label %30

30:                                               ; preds = %29
  %31 = load i32, i32* %3, align 4
  %32 = add nsw i32 %31, 1
  store i32 %32, i32* %3, align 4
  br label %16

33:                                               ; preds = %16
  store i32 0, i32* %8, align 4
  store i32 2, i32* %4, align 4
  br label %34

34:                                               ; preds = %50, %33
  %35 = load i32, i32* %4, align 4
  %36 = load i32, i32* %2, align 4
  %37 = sdiv i32 %36, 2
  %38 = add nsw i32 %37, 1
  %39 = icmp sle i32 %35, %38
  br i1 %39, label %40, label %53

40:                                               ; preds = %34
  %41 = load i32, i32* %2, align 4
  %42 = add nsw i32 %41, 2
  %43 = load i32, i32* %4, align 4
  %44 = srem i32 %42, %43
  %45 = icmp eq i32 %44, 0
  br i1 %45, label %46, label %49

46:                                               ; preds = %40
  %47 = load i32, i32* %8, align 4
  %48 = add nsw i32 %47, 1
  store i32 %48, i32* %8, align 4
  br label %49

49:                                               ; preds = %46, %40
  br label %50

50:                                               ; preds = %49
  %51 = load i32, i32* %4, align 4
  %52 = add nsw i32 %51, 1
  store i32 %52, i32* %4, align 4
  br label %34

53:                                               ; preds = %34
  %54 = load i32, i32* %7, align 4
  %55 = icmp slt i32 %54, 1
  br i1 %55, label %56, label %66

56:                                               ; preds = %53
  %57 = load i32, i32* %8, align 4
  %58 = icmp slt i32 %57, 1
  br i1 %58, label %59, label %66

59:                                               ; preds = %56
  %60 = load i32, i32* %2, align 4
  %61 = load i32, i32* %2, align 4
  %62 = add nsw i32 %61, 2
  %63 = call i32 (i8*, ...) @printf(i8* getelementptr inbounds ([7 x i8], [7 x i8]* @.str.1, i64 0, i64 0), i32 %60, i32 %62)
  %64 = load i32, i32* %5, align 4
  %65 = add nsw i32 %64, 1
  store i32 %65, i32* %5, align 4
  br label %66

66:                                               ; preds = %59, %56, %53
  br label %67

67:                                               ; preds = %66
  %68 = load i32, i32* %2, align 4
  %69 = add nsw i32 %68, 1
  store i32 %69, i32* %2, align 4
  br label %10

70:                                               ; preds = %10
  %71 = load i32, i32* %5, align 4
  %72 = icmp eq i32 %71, 0
  br i1 %72, label %73, label %75

73:                                               ; preds = %70
  %74 = call i32 (i8*, ...) @printf(i8* getelementptr inbounds ([7 x i8], [7 x i8]* @.str.2, i64 0, i64 0))
  br label %75

75:                                               ; preds = %73, %70
  %76 = load i32, i32* %1, align 4
  ret i32 %76
}

declare dso_local i32 @__isoc99_scanf(i8*, ...) #1

declare dso_local i32 @printf(i8*, ...) #1


!llvm.module.flags = !{!0}
!llvm.ident = !{!1}

!0 = !{i32 1, !"wchar_size", i32 4}
!1 = !{!"clang version 10.0.0-4ubuntu1 "}
